target datalayout = "e-m:e-p270:32:32-p271:32:32-p272:64:64-i64:64-i128:128-f80:128-n8:16:32:64-S128"
target triple = "x86_64-pc-linux-gnu"

%struct.AVCodecTag = type { i32, i32 }
%struct.IAMFCodecConfig = type { i32, i32, i32, i32, i32, i32, i32, ptr }
%struct.MPEG4AudioConfig = type { i32, i32, i32, i32, i32, i32, i32, i32, i32, i32, i32, i32 }

@ff_mp4_obj_type = external constant [0 x %struct.AVCodecTag], align 4

; Function Attrs: alwaysinline nounwind uwtable
define internal i64 @avio_tell(ptr noundef %0) #6 {
  %2 = alloca ptr, align 8
  store ptr %0, ptr %2, align 8, !tbaa !26
  %3 = load ptr, ptr %2, align 8, !tbaa !26
  %4 = call i64 @avio_seek(ptr noundef %3, i64 noundef 0, i32 noundef 1)
  ret i64 %4
}

; Function Attrs: nounwind uwtable
define internal i32 @aac_decoder_config(ptr noundef %0, ptr noundef %1, i32 noundef %2, ptr noundef %3) #0 {
  %5 = alloca i32, align 4
  %6 = alloca ptr, align 8
  %7 = alloca ptr, align 8
  %8 = alloca i32, align 4
  %9 = alloca ptr, align 8
  %10 = alloca %struct.MPEG4AudioConfig, align 4
  %11 = alloca i32, align 4
  %12 = alloca i32, align 4
  %13 = alloca i32, align 4
  %14 = alloca i32, align 4
  %15 = alloca i32, align 4
  %16 = alloca i32, align 4
  %17 = alloca i32, align 4
  store ptr %0, ptr %6, align 8, !tbaa !30
  store ptr %1, ptr %7, align 8, !tbaa !26
  store i32 %2, ptr %8, align 4, !tbaa !9
  store ptr %3, ptr %9, align 8, !tbaa !13
  call void @llvm.lifetime.start.p0(i64 48, ptr %10) #12
  call void @llvm.memset.p0.i64(ptr align 4 %10, i8 0, i64 48, i1 false)
  call void @llvm.lifetime.start.p0(i64 4, ptr %11) #12
  call void @llvm.lifetime.start.p0(i64 4, ptr %12) #12
  call void @llvm.lifetime.start.p0(i64 4, ptr %13) #12
  call void @llvm.lifetime.start.p0(i64 4, ptr %14) #12
  call void @llvm.lifetime.start.p0(i64 4, ptr %15) #12
  call void @llvm.lifetime.start.p0(i64 4, ptr %16) #12
  %18 = load ptr, ptr %6, align 8, !tbaa !30
  %19 = getelementptr inbounds nuw %struct.IAMFCodecConfig, ptr %18, i32 0, i32 4
  %20 = load i32, ptr %19, align 8, !tbaa !48
  %21 = icmp sge i32 %20, 0
  br i1 %21, label %22, label %23

22:                                               ; preds = %4
  store i32 -1094995529, ptr %5, align 4
  store i32 1, ptr %17, align 4
  br label %137

23:                                               ; preds = %4
  %24 = load ptr, ptr %9, align 8, !tbaa !13
  %25 = load ptr, ptr %7, align 8, !tbaa !26
  %26 = call i32 @ff_mp4_read_descr(ptr noundef %24, ptr noundef %25, ptr noundef %15)
  %27 = load i32, ptr %15, align 4, !tbaa !9
  %28 = icmp ne i32 %27, 4
  br i1 %28, label %29, label %30

29:                                               ; preds = %23
  store i32 -1094995529, ptr %5, align 4
  store i32 1, ptr %17, align 4
  br label %137

30:                                               ; preds = %23
  %31 = load ptr, ptr %7, align 8, !tbaa !26
  %32 = call i32 @avio_r8(ptr noundef %31)
  store i32 %32, ptr %11, align 4, !tbaa !9
  %33 = load i32, ptr %11, align 4, !tbaa !9
  %34 = icmp ne i32 %33, 64
  br i1 %34, label %35, label %36

35:                                               ; preds = %30
  store i32 -1094995529, ptr %5, align 4
  store i32 1, ptr %17, align 4
  br label %137

36:                                               ; preds = %30
  %37 = load ptr, ptr %7, align 8, !tbaa !26
  %38 = call i32 @avio_r8(ptr noundef %37)
  store i32 %38, ptr %13, align 4, !tbaa !9
  %39 = load i32, ptr %13, align 4, !tbaa !9
  %40 = ashr i32 %39, 2
  %41 = icmp ne i32 %40, 5
  br i1 %41, label %47, label %42

42:                                               ; preds = %36
  %43 = load i32, ptr %13, align 4, !tbaa !9
  %44 = ashr i32 %43, 1
  %45 = and i32 %44, 1
  %46 = icmp ne i32 %45, 0
  br i1 %46, label %47, label %48

47:                                               ; preds = %42, %36
  store i32 -1094995529, ptr %5, align 4
  store i32 1, ptr %17, align 4
  br label %137

48:                                               ; preds = %42
  %49 = load ptr, ptr %7, align 8, !tbaa !26
  %50 = call i64 @avio_skip(ptr noundef %49, i64 noundef 3)
  %51 = load ptr, ptr %7, align 8, !tbaa !26
  %52 = call i64 @avio_skip(ptr noundef %51, i64 noundef 4)
  %53 = load ptr, ptr %7, align 8, !tbaa !26
  %54 = call i64 @avio_skip(ptr noundef %53, i64 noundef 4)
  %55 = load i32, ptr %11, align 4, !tbaa !9
  %56 = call i32 @ff_codec_get_id(ptr noundef @ff_mp4_obj_type, i32 noundef %55)
  store i32 %56, ptr %12, align 4, !tbaa !9
  %57 = load i32, ptr %12, align 4, !tbaa !9
  %58 = icmp ne i32 %57, 0
  br i1 %58, label %59, label %66

59:                                               ; preds = %48
  %60 = load i32, ptr %12, align 4, !tbaa !9
  %61 = load ptr, ptr %6, align 8, !tbaa !30
  %62 = getelementptr inbounds nuw %struct.IAMFCodecConfig, ptr %61, i32 0, i32 1
  %63 = load i32, ptr %62, align 4, !tbaa !46
  %64 = icmp ne i32 %60, %63
  br i1 %64, label %65, label %66

65:                                               ; preds = %59
  store i32 -1094995529, ptr %5, align 4
  store i32 1, ptr %17, align 4
  br label %137

66:                                               ; preds = %59, %48
  %67 = load ptr, ptr %9, align 8, !tbaa !13
  %68 = load ptr, ptr %7, align 8, !tbaa !26
  %69 = call i32 @ff_mp4_read_descr(ptr noundef %67, ptr noundef %68, ptr noundef %15)
  store i32 %69, ptr %16, align 4, !tbaa !9
  %70 = load i32, ptr %15, align 4, !tbaa !9
  %71 = icmp ne i32 %70, 5
  br i1 %71, label %84, label %72

72:                                               ; preds = %66
  %73 = load i32, ptr %16, align 4, !tbaa !9
  %74 = icmp ne i32 %73, 0
  br i1 %74, label %75, label %84

75:                                               ; preds = %72
  %76 = load i32, ptr %16, align 4, !tbaa !9
  %77 = sext i32 %76 to i64
  %78 = load i32, ptr %8, align 4, !tbaa !9
  %79 = sext i32 %78 to i64
  %80 = load ptr, ptr %7, align 8, !tbaa !26
  %81 = call i64 @avio_tell(ptr noundef %80)
  %82 = sub nsw i64 %79, %81
  %83 = icmp sgt i64 %77, %82
  br i1 %83, label %84, label %85

84:                                               ; preds = %75, %72, %66
  store i32 -1094995529, ptr %5, align 4
  store i32 1, ptr %17, align 4
  br label %137

85:                                               ; preds = %75
  %86 = load i32, ptr %16, align 4, !tbaa !9
  %87 = sext i32 %86 to i64
  %88 = add i64 %87, 64
  %89 = call noalias ptr @av_malloc(i64 noundef %88)
  %90 = load ptr, ptr %6, align 8, !tbaa !30
  %91 = getelementptr inbounds nuw %struct.IAMFCodecConfig, ptr %90, i32 0, i32 7
  store ptr %89, ptr %91, align 8, !tbaa !49
  %92 = load ptr, ptr %6, align 8, !tbaa !30
  %93 = getelementptr inbounds nuw %struct.IAMFCodecConfig, ptr %92, i32 0, i32 7
  %94 = load ptr, ptr %93, align 8, !tbaa !49
  %95 = icmp ne ptr %94, null
  br i1 %95, label %97, label %96

96:                                               ; preds = %85
  store i32 -12, ptr %5, align 4
  store i32 1, ptr %17, align 4
  br label %137

97:                                               ; preds = %85
  %98 = load ptr, ptr %7, align 8, !tbaa !26
  %99 = load ptr, ptr %6, align 8, !tbaa !30
  %100 = getelementptr inbounds nuw %struct.IAMFCodecConfig, ptr %99, i32 0, i32 7
  %101 = load ptr, ptr %100, align 8, !tbaa !49
  %102 = load i32, ptr %16, align 4, !tbaa !9
  %103 = call i32 @ffio_read_size(ptr noundef %98, ptr noundef %101, i32 noundef %102)
  store i32 %103, ptr %14, align 4, !tbaa !9
  %104 = load i32, ptr %14, align 4, !tbaa !9
  %105 = icmp slt i32 %104, 0
  br i1 %105, label %106, label %108

106:                                              ; preds = %97
  %107 = load i32, ptr %14, align 4, !tbaa !9
  store i32 %107, ptr %5, align 4
  store i32 1, ptr %17, align 4
  br label %137

108:                                              ; preds = %97
  %109 = load i32, ptr %16, align 4, !tbaa !9
  %110 = load ptr, ptr %6, align 8, !tbaa !30
  %111 = getelementptr inbounds nuw %struct.IAMFCodecConfig, ptr %110, i32 0, i32 6
  store i32 %109, ptr %111, align 8, !tbaa !87
  %112 = load ptr, ptr %6, align 8, !tbaa !30
  %113 = getelementptr inbounds nuw %struct.IAMFCodecConfig, ptr %112, i32 0, i32 7
  %114 = load ptr, ptr %113, align 8, !tbaa !49
  %115 = load ptr, ptr %6, align 8, !tbaa !30
  %116 = getelementptr inbounds nuw %struct.IAMFCodecConfig, ptr %115, i32 0, i32 6
  %117 = load i32, ptr %116, align 8, !tbaa !87
  %118 = sext i32 %117 to i64
  %119 = getelementptr inbounds i8, ptr %114, i64 %118
  call void @llvm.memset.p0.i64(ptr align 1 %119, i8 0, i64 64, i1 false)
  %120 = load ptr, ptr %6, align 8, !tbaa !30
  %121 = getelementptr inbounds nuw %struct.IAMFCodecConfig, ptr %120, i32 0, i32 7
  %122 = load ptr, ptr %121, align 8, !tbaa !49
  %123 = load ptr, ptr %6, align 8, !tbaa !30
  %124 = getelementptr inbounds nuw %struct.IAMFCodecConfig, ptr %123, i32 0, i32 6
  %125 = load i32, ptr %124, align 8, !tbaa !87
  %126 = load ptr, ptr %9, align 8, !tbaa !13
  %127 = call i32 @avpriv_mpeg4audio_get_config2(ptr noundef %10, ptr noundef %122, i32 noundef %125, i32 noundef 1, ptr noundef %126)
  store i32 %127, ptr %14, align 4, !tbaa !9
  %128 = load i32, ptr %14, align 4, !tbaa !9
  %129 = icmp slt i32 %128, 0
  br i1 %129, label %130, label %132

130:                                              ; preds = %108
  %131 = load i32, ptr %14, align 4, !tbaa !9
  store i32 %131, ptr %5, align 4
  store i32 1, ptr %17, align 4
  br label %137

132:                                              ; preds = %108
  %133 = getelementptr inbounds nuw %struct.MPEG4AudioConfig, ptr %10, i32 0, i32 2
  %134 = load i32, ptr %133, align 4, !tbaa !135
  %135 = load ptr, ptr %6, align 8, !tbaa !30
  %136 = getelementptr inbounds nuw %struct.IAMFCodecConfig, ptr %135, i32 0, i32 5
  store i32 %134, ptr %136, align 4, !tbaa !84
  store i32 0, ptr %5, align 4
  store i32 1, ptr %17, align 4
  br label %137

137:                                              ; preds = %132, %130, %106, %96, %84, %65, %47, %35, %29, %22
  call void @llvm.lifetime.end.p0(i64 4, ptr %16) #12
  call void @llvm.lifetime.end.p0(i64 4, ptr %15) #12
  call void @llvm.lifetime.end.p0(i64 4, ptr %14) #12
  call void @llvm.lifetime.end.p0(i64 4, ptr %13) #12
  call void @llvm.lifetime.end.p0(i64 4, ptr %12) #12
  call void @llvm.lifetime.end.p0(i64 4, ptr %11) #12
  call void @llvm.lifetime.end.p0(i64 48, ptr %10) #12
  %138 = load i32, ptr %5, align 4
  ret i32 %138
}