; Function Attrs: nounwind uwtable
define internal fastcc range(i32 -2147483648, 1) i32 @aac_decoder_config(ptr noundef nonnull captures(none) %0, ptr noundef nonnull %1, i32 noundef %2, ptr noundef %3) unnamed_addr #2 {
  %5 = alloca %struct.MPEG4AudioConfig, align 4
  %6 = alloca i32, align 4
  call void @llvm.lifetime.start.p0(i64 48, ptr nonnull %5) #10
  call void @llvm.memset.p0.i64(ptr noundef nonnull align 4 dereferenceable(48) %5, i8 0, i64 48, i1 false)
  call void @llvm.lifetime.start.p0(i64 4, ptr nonnull %6) #10
  %7 = getelementptr inbounds nuw i8, ptr %0, i64 16
  %8 = load i32, ptr %7, align 8, !tbaa !28
  %9 = icmp sgt i32 %8, -1
  br i1 %9, label %56, label %10

10:                                               ; preds = %4
  %11 = call i32 @ff_mp4_read_descr(ptr noundef %3, ptr noundef nonnull %1, ptr noundef nonnull %6) #10
  %12 = load i32, ptr %6, align 4, !tbaa !7
  %.not = icmp eq i32 %12, 4
  br i1 %.not, label %13, label %56

13:                                               ; preds = %10
  %14 = call i32 @avio_r8(ptr noundef nonnull %1) #10
  %.not47 = icmp eq i32 %14, 64
  br i1 %.not47, label %15, label %56

15:                                               ; preds = %13
  %16 = call i32 @avio_r8(ptr noundef nonnull %1) #10
  %17 = and i32 %16, -2
  %or.cond53 = icmp eq i32 %17, 20
  br i1 %or.cond53, label %18, label %56

18:                                               ; preds = %15
  %19 = call i64 @avio_skip(ptr noundef nonnull %1, i64 noundef 3) #10
  %20 = call i64 @avio_skip(ptr noundef nonnull %1, i64 noundef 4) #10
  %21 = call i64 @avio_skip(ptr noundef nonnull %1, i64 noundef 4) #10
  %22 = call i32 @ff_codec_get_id(ptr noundef nonnull @ff_mp4_obj_type, i32 noundef 64) #10
  %.not50 = icmp eq i32 %22, 0
  br i1 %.not50, label %26, label %23

23:                                               ; preds = %18
  %24 = getelementptr inbounds nuw i8, ptr %0, i64 4
  %25 = load i32, ptr %24, align 4, !tbaa !26
  %.not51 = icmp eq i32 %22, %25
  br i1 %.not51, label %26, label %56

26:                                               ; preds = %23, %18
  %27 = call i32 @ff_mp4_read_descr(ptr noundef %3, ptr noundef nonnull %1, ptr noundef nonnull %6) #10
  %28 = load i32, ptr %6, align 4, !tbaa !7
  %29 = icmp eq i32 %28, 5
  %30 = icmp ne i32 %27, 0
  %or.cond = select i1 %29, i1 %30, i1 false
  br i1 %or.cond, label %31, label %56

31:                                               ; preds = %26
  %32 = sext i32 %27 to i64
  %33 = sext i32 %2 to i64
  %34 = call i64 @avio_seek(ptr noundef nonnull %1, i64 noundef 0, i32 noundef 1) #10
  %35 = sub nsw i64 %33, %34
  %36 = icmp slt i64 %35, %32
  br i1 %36, label %56, label %37

37:                                               ; preds = %31
  %38 = add nsw i64 %32, 64
  %39 = call noalias ptr @av_malloc(i64 noundef %38) #10
  %40 = getelementptr inbounds nuw i8, ptr %0, i64 32
  store ptr %39, ptr %40, align 8, !tbaa !29
  %.not52 = icmp eq ptr %39, null
  br i1 %.not52, label %56, label %41

41:                                               ; preds = %37
  %42 = call i32 @ffio_read_size(ptr noundef nonnull %1, ptr noundef nonnull %39, i32 noundef %27) #10
  %43 = icmp slt i32 %42, 0
  br i1 %43, label %56, label %44

44:                                               ; preds = %41
  %45 = getelementptr inbounds nuw i8, ptr %0, i64 24
  store i32 %27, ptr %45, align 8, !tbaa !66
  %46 = load ptr, ptr %40, align 8, !tbaa !29
  %47 = getelementptr inbounds i8, ptr %46, i64 %32
  call void @llvm.memset.p0.i64(ptr noundef nonnull align 1 dereferenceable(64) %47, i8 0, i64 64, i1 false)
  %48 = load ptr, ptr %40, align 8, !tbaa !29
  %49 = load i32, ptr %45, align 8, !tbaa !66
  %50 = call i32 @avpriv_mpeg4audio_get_config2(ptr noundef nonnull %5, ptr noundef %48, i32 noundef %49, i32 noundef 1, ptr noundef %3) #10
  %51 = icmp slt i32 %50, 0
  br i1 %51, label %56, label %52

52:                                               ; preds = %44
  %53 = getelementptr inbounds nuw i8, ptr %5, i64 8
  %54 = load i32, ptr %53, align 4, !tbaa !105
  %55 = getelementptr inbounds nuw i8, ptr %0, i64 20
  store i32 %54, ptr %55, align 4, !tbaa !63
  br label %56

56:                                               ; preds = %44, %41, %37, %26, %31, %23, %15, %13, %10, %4, %52
  %.0 = phi i32 [ 0, %52 ], [ -1094995529, %4 ], [ -1094995529, %10 ], [ -1094995529, %13 ], [ -1094995529, %15 ], [ -1094995529, %23 ], [ -1094995529, %31 ], [ -1094995529, %26 ], [ -12, %37 ], [ %42, %41 ], [ %50, %44 ]
  call void @llvm.lifetime.end.p0(i64 4, ptr nonnull %6) #10
  call void @llvm.lifetime.end.p0(i64 48, ptr nonnull %5) #10
  ret i32 %.0
}